; Function Attrs: nounwind uwtable
define ptr @l_Lake_buildO(ptr noundef %0, ptr noundef %1, ptr noundef %2, ptr noundef %3, ptr noundef %4, ptr noundef %5, ptr noundef %6, ptr noundef %7, ptr noundef %8, ptr noundef %9, ptr noundef %10, ptr noundef %11) local_unnamed_addr #0 {
  tail call void @lean_inc_heartbeat() #5
  %13 = tail call noalias ptr @mi_malloc_small(i64 noundef 64) #5
  %14 = icmp eq ptr %13, null
  br i1 %14, label %15, label %lean_alloc_closure.exit

15:                                               ; preds = %12
  tail call void @lean_internal_panic_out_of_memory() #6
  unreachable

lean_alloc_closure.exit:                          ; preds = %12
  %16 = getelementptr inbounds nuw i8, ptr %13, i64 4
  store i32 1, ptr %13, align 4, !tbaa !4
  store i32 -184549312, ptr %16, align 4
  %17 = getelementptr inbounds nuw i8, ptr %13, i64 8
  store ptr @l_Lake_buildO___lambda__2, ptr %17, align 8, !tbaa !9
  %18 = getelementptr inbounds nuw i8, ptr %13, i64 16
  store i16 12, ptr %18, align 8, !tbaa !15
  %19 = getelementptr inbounds nuw i8, ptr %13, i64 18
  store i16 5, ptr %19, align 2, !tbaa !15
  %20 = getelementptr inbounds nuw i8, ptr %13, i64 24
  store ptr %3, ptr %20, align 8, !tbaa !9
  %21 = getelementptr inbounds nuw i8, ptr %13, i64 32
  store ptr %5, ptr %21, align 8, !tbaa !9
  %22 = getelementptr inbounds nuw i8, ptr %13, i64 40
  store ptr %2, ptr %22, align 8, !tbaa !9
  %23 = getelementptr inbounds nuw i8, ptr %13, i64 48
  store ptr %0, ptr %23, align 8, !tbaa !9
  %24 = getelementptr inbounds nuw i8, ptr %13, i64 56
  store ptr %4, ptr %24, align 8, !tbaa !9
  %25 = load ptr, ptr @l_Task_Priority_default, align 8, !tbaa !9
  %26 = tail call ptr @l_Lake_Job_mapM___at_Lake_buildO___spec__2(ptr noundef %1, ptr noundef nonnull %13, ptr noundef %25, i8 noundef zeroext 0, ptr noundef %6, ptr noundef %7, ptr noundef %8, ptr noundef %9, ptr noundef %10, ptr noundef %11)
  ret ptr %26
}